target datalayout = "e-m:e-p270:32:32-p271:32:32-p272:64:64-i64:64-i128:128-f80:128-n8:16:32:64-S128"
target triple = "x86_64-pc-linux-gnu"

%struct.reftable_buf = type { i64, i64, ptr }

; Function Attrs: nounwind uwtable
define dso_local void @reftable_buf_reset(ptr noundef %0) #0 {
  %2 = alloca ptr, align 8
  store ptr %0, ptr %2, align 8, !tbaa !12
  %3 = load ptr, ptr %2, align 8, !tbaa !12
  %4 = getelementptr inbounds nuw %struct.reftable_buf, ptr %3, i32 0, i32 0
  %5 = load i64, ptr %4, align 8, !tbaa !17
  %6 = icmp ne i64 %5, 0
  br i1 %6, label %7, label %14

7:                                                ; preds = %1
  %8 = load ptr, ptr %2, align 8, !tbaa !12
  %9 = getelementptr inbounds nuw %struct.reftable_buf, ptr %8, i32 0, i32 1
  store i64 0, ptr %9, align 8, !tbaa !18
  %10 = load ptr, ptr %2, align 8, !tbaa !12
  %11 = getelementptr inbounds nuw %struct.reftable_buf, ptr %10, i32 0, i32 2
  %12 = load ptr, ptr %11, align 8, !tbaa !15
  %13 = getelementptr inbounds i8, ptr %12, i64 0
  store i8 0, ptr %13, align 1, !tbaa !19
  br label %14

14:                                               ; preds = %7, %1
  ret void
}