; Function Attrs: mustprogress nofree norecurse nosync nounwind willreturn memory(write, argmem: readwrite, inaccessiblemem: none) uwtable
define dso_local void @reftable_buf_reset(ptr noundef captures(none) %0) local_unnamed_addr #9 {
  %2 = load i64, ptr %0, align 8, !tbaa !12
  %.not = icmp eq i64 %2, 0
  br i1 %.not, label %7, label %3

3:                                                ; preds = %1
  %4 = getelementptr inbounds nuw i8, ptr %0, i64 8
  store i64 0, ptr %4, align 8, !tbaa !13
  %5 = getelementptr inbounds nuw i8, ptr %0, i64 16
  %6 = load ptr, ptr %5, align 8, !tbaa !8
  store i8 0, ptr %6, align 1, !tbaa !14
  br label %7

7:                                                ; preds = %3, %1
  ret void
}